target datalayout = "e-m:e-p270:32:32-p271:32:32-p272:64:64-i64:64-i128:128-f80:128-n8:16:32:64-S128"
target triple = "x86_64-pc-linux-gnu"

%struct.archive_read_disk = type { %struct.archive, ptr, i8, i8, ptr, ptr, ptr, ptr, i32, ptr, ptr, ptr, ptr, ptr, ptr, ptr, ptr, ptr, ptr, ptr }
%struct.archive = type { i32, i32, ptr, i32, ptr, i32, i32, ptr, %struct.archive_string, ptr, i32, i32, ptr, ptr, i64, i64, i64, i8, i64 }
%struct.archive_string = type { ptr, i64, i64 }

; Function Attrs: nounwind uwtable
define dso_local ptr @archive_read_disk_new() #0 {
  %1 = alloca ptr, align 8
  %2 = alloca ptr, align 8
  %3 = call noalias ptr @calloc(i64 noundef 1, i64 noundef 288) #9
  store ptr %3, ptr %2, align 8
  %4 = load ptr, ptr %2, align 8
  %5 = icmp eq ptr %4, null
  br i1 %5, label %6, label %7

6:                                                ; preds = %0
  store ptr null, ptr %1, align 8
  br label %36

7:                                                ; preds = %0
  %8 = load ptr, ptr %2, align 8
  %9 = getelementptr inbounds %struct.archive_read_disk, ptr %8, i32 0, i32 0
  %10 = getelementptr inbounds %struct.archive, ptr %9, i32 0, i32 0
  store i32 195932357, ptr %10, align 8
  %11 = load ptr, ptr %2, align 8
  %12 = getelementptr inbounds %struct.archive_read_disk, ptr %11, i32 0, i32 0
  %13 = getelementptr inbounds %struct.archive, ptr %12, i32 0, i32 1
  store i32 1, ptr %13, align 4
  %14 = load ptr, ptr %2, align 8
  %15 = getelementptr inbounds %struct.archive_read_disk, ptr %14, i32 0, i32 0
  %16 = getelementptr inbounds %struct.archive, ptr %15, i32 0, i32 2
  store ptr @archive_read_disk_vtable, ptr %16, align 8
  %17 = load ptr, ptr %2, align 8
  %18 = getelementptr inbounds %struct.archive_read_disk, ptr %17, i32 0, i32 0
  %19 = call ptr @archive_entry_new2(ptr noundef %18)
  %20 = load ptr, ptr %2, align 8
  %21 = getelementptr inbounds %struct.archive_read_disk, ptr %20, i32 0, i32 1
  store ptr %19, ptr %21, align 8
  %22 = load ptr, ptr %2, align 8
  %23 = getelementptr inbounds %struct.archive_read_disk, ptr %22, i32 0, i32 12
  store ptr @trivial_lookup_uname, ptr %23, align 8
  %24 = load ptr, ptr %2, align 8
  %25 = getelementptr inbounds %struct.archive_read_disk, ptr %24, i32 0, i32 9
  store ptr @trivial_lookup_gname, ptr %25, align 8
  %26 = load ptr, ptr %2, align 8
  %27 = getelementptr inbounds %struct.archive_read_disk, ptr %26, i32 0, i32 8
  store i32 4, ptr %27, align 8
  %28 = load ptr, ptr %2, align 8
  %29 = getelementptr inbounds %struct.archive_read_disk, ptr %28, i32 0, i32 5
  store ptr @open_on_current_dir, ptr %29, align 8
  %30 = load ptr, ptr %2, align 8
  %31 = getelementptr inbounds %struct.archive_read_disk, ptr %30, i32 0, i32 6
  store ptr @tree_current_dir_fd, ptr %31, align 8
  %32 = load ptr, ptr %2, align 8
  %33 = getelementptr inbounds %struct.archive_read_disk, ptr %32, i32 0, i32 7
  store ptr @tree_enter_working_dir, ptr %33, align 8
  %34 = load ptr, ptr %2, align 8
  %35 = getelementptr inbounds %struct.archive_read_disk, ptr %34, i32 0, i32 0
  store ptr %35, ptr %1, align 8
  br label %36

36:                                               ; preds = %7, %6
  %37 = load ptr, ptr %1, align 8
  ret ptr %37
}