; Function Attrs: nounwind uwtable
define dso_local noundef ptr @archive_read_disk_new() local_unnamed_addr #0 {
  %1 = tail call noalias dereferenceable_or_null(288) ptr @calloc(i64 noundef 1, i64 noundef 288) #18
  %2 = icmp eq ptr %1, null
  br i1 %2, label %14, label %3

3:                                                ; preds = %0
  store i32 195932357, ptr %1, align 8
  %4 = getelementptr inbounds nuw i8, ptr %1, i64 4
  store i32 1, ptr %4, align 4
  %5 = getelementptr inbounds nuw i8, ptr %1, i64 8
  store ptr @archive_read_disk_vtable, ptr %5, align 8
  %6 = tail call ptr @archive_entry_new2(ptr noundef nonnull %1) #17
  %7 = getelementptr inbounds nuw i8, ptr %1, i64 144
  store ptr %6, ptr %7, align 8
  %8 = getelementptr inbounds nuw i8, ptr %1, i64 224
  store ptr @trivial_lookup_uname, ptr %8, align 8
  %9 = getelementptr inbounds nuw i8, ptr %1, i64 200
  store ptr @trivial_lookup_gname, ptr %9, align 8
  %10 = getelementptr inbounds nuw i8, ptr %1, i64 192
  store i32 4, ptr %10, align 8
  %11 = getelementptr inbounds nuw i8, ptr %1, i64 168
  store ptr @open_on_current_dir, ptr %11, align 8
  %12 = getelementptr inbounds nuw i8, ptr %1, i64 176
  store ptr @tree_current_dir_fd, ptr %12, align 8
  %13 = getelementptr inbounds nuw i8, ptr %1, i64 184
  store ptr @tree_enter_working_dir, ptr %13, align 8
  br label %14

14:                                               ; preds = %0, %3
  ret ptr %1
}